; Function Attrs: mustprogress uwtable
define noundef range(i64 0, 288230376151711737) i64 @_ZNK6duckdb15MetadataManager20GetMetadataBlockSizeEv(ptr noundef nonnull readonly align 8 captures(none) dereferenceable(128) %0) local_unnamed_addr #2 align 2 {
  %2 = load ptr, ptr %0, align 8, !tbaa !43
  %3 = getelementptr inbounds nuw i8, ptr %2, i64 120
  %4 = tail call noundef i64 @_ZNK6duckdb12optional_idx8GetIndexEv(ptr noundef nonnull align 8 dereferenceable(8) %3)
  %5 = add i64 %4, -8
  %6 = lshr i64 %5, 6
  %7 = and i64 %6, 288230376151711736
  ret i64 %7
}